(lp0
ccopy_reg
_reconstructor
p1
(chighscore
OneScore
p2
c__builtin__
object
p3
Ntp4
Rp5
(dp6
S'score'
p7
I4900
sS'name'
p8
S'zhiwei xin'
p9
sbag1
(g2
g3
Ntp10
Rp11
(dp12
g7
I4000
sg8
S'zhiwei xin'
p13
sbag1
(g2
g3
Ntp14
Rp15
(dp16
g7
I700
sg8
S'fjiwoejfwi'
p17
sba.